; Function Attrs: mustprogress uwtable
define dso_local void @_Z10btPoolFreePv(ptr noundef %ptr) local_unnamed_addr #2 {
entry:
  %0 = load i64, ptr getelementptr inbounds (%class.GIM_STANDARD_ALLOCATOR, ptr @g_main_allocator, i64 0, i32 0, i32 4), align 8
  %cmp5.i = icmp eq i64 %0, 0
  br i1 %cmp5.i, label %if.end.i, label %while.body.lr.ph.i

while.body.lr.ph.i:                               ; preds = %entry
  %sub.ptr.lhs.cast.i.i = ptrtoint ptr %ptr to i64
  br label %while.body.i

while.body.i:                                     ; preds = %_ZN19btGenericMemoryPool10freeMemoryEPv.exit.i, %while.body.lr.ph.i
  %i.06.i = phi i64 [ 0, %while.body.lr.ph.i ], [ %inc.i, %_ZN19btGenericMemoryPool10freeMemoryEPv.exit.i ]
  %arrayidx.i = getelementptr inbounds [16 x ptr], ptr getelementptr inbounds (%class.GIM_STANDARD_ALLOCATOR, ptr @g_main_allocator, i64 0, i32 0, i32 3, i64 0), i64 0, i64 %i.06.i
  %1 = load ptr, ptr %arrayidx.i, align 8
  %2 = load ptr, ptr %1, align 8
  %cmp.i.i = icmp ugt ptr %2, %ptr
  br i1 %cmp.i.i, label %_ZN19btGenericMemoryPool10freeMemoryEPv.exit.i, label %if.end.i.i

if.end.i.i:                                       ; preds = %while.body.i
  %sub.ptr.rhs.cast.i.i = ptrtoint ptr %2 to i64
  %sub.ptr.sub.i.i = sub i64 %sub.ptr.lhs.cast.i.i, %sub.ptr.rhs.cast.i.i
  %m_element_size.i.i.i = getelementptr inbounds i8, ptr %1, i64 40
  %3 = load i64, ptr %m_element_size.i.i.i, align 8
  %m_max_element_count.i.i.i = getelementptr inbounds i8, ptr %1, i64 48
  %4 = load i64, ptr %m_max_element_count.i.i.i, align 8
  %mul.i.i.i = mul i64 %4, %3
  %cmp2.not.i.i = icmp ult i64 %sub.ptr.sub.i.i, %mul.i.i.i
  br i1 %cmp2.not.i.i, label %while.end.thread.i, label %_ZN19btGenericMemoryPool10freeMemoryEPv.exit.i

while.end.thread.i:                               ; preds = %if.end.i.i
  %div.i.i = udiv i64 %sub.ptr.sub.i.i, %3
  %m_free_nodes.i.i = getelementptr inbounds i8, ptr %1, i64 8
  %5 = load ptr, ptr %m_free_nodes.i.i, align 8
  %m_free_nodes_count.i.i = getelementptr inbounds i8, ptr %1, i64 32
  %6 = load i64, ptr %m_free_nodes_count.i.i, align 8
  %arrayidx.i.i = getelementptr inbounds i64, ptr %5, i64 %6
  store i64 %div.i.i, ptr %arrayidx.i.i, align 8
  %7 = load i64, ptr %m_free_nodes_count.i.i, align 8
  %inc.i.i = add i64 %7, 1
  store i64 %inc.i.i, ptr %m_free_nodes_count.i.i, align 8
  br label %_ZN22btGenericPoolAllocator10freeMemoryEPv.exit

_ZN19btGenericMemoryPool10freeMemoryEPv.exit.i:   ; preds = %if.end.i.i, %while.body.i
  %inc.i = add nuw i64 %i.06.i, 1
  %exitcond.not = icmp eq i64 %inc.i, %0
  br i1 %exitcond.not, label %if.end.i, label %while.body.i, !llvm.loop !10

if.end.i:                                         ; preds = %_ZN19btGenericMemoryPool10freeMemoryEPv.exit.i, %entry
  tail call void @_Z21btAlignedFreeInternalPv(ptr noundef %ptr)
  br label %_ZN22btGenericPoolAllocator10freeMemoryEPv.exit

_ZN22btGenericPoolAllocator10freeMemoryEPv.exit:  ; preds = %while.end.thread.i, %if.end.i
  ret void
}